(dp0
S'PRP$'
p1
I14
sS'VBG'
p2
I21
sS'FW'
p3
I34
sS'VBP'
p4
I697
sS'WDT'
p5
I148
sS'JJ'
p6
I301
sS'WP'
p7
I534
sS'VBZ'
p8
I426
sS'DT'
p9
I758
sS'RP'
p10
I14
sS'NN'
p11
I730
sS'VBD'
p12
I48
sS'.'
p13
I1
sS'TO'
p14
I57
sS'PRP'
p15
I5523
sS'RB'
p16
I625
sS'NNS'
p17
I50
sS'NNP'
p18
I27
sS'VB'
p19
I1857
sS'WRB'
p20
I844
sS'CC'
p21
I24
sS'LS'
p22
I9
sS'PDT'
p23
I4
sS'RBR'
p24
I3
sS'CD'
p25
I210
sS'EX'
p26
I7
sS'IN'
p27
I247
sS'MD'
p28
I579
sS'JJS'
p29
I9
sS'JJR'
p30
I94
sS'UH'
p31
I1816
s.