(dp0
S'PRP$'
p1
(dp2
S'DT'
p3
I8
sS'NNS'
p4
I32
sS'JJ'
p5
I34
sS'NN'
p6
I195
sS'.'
p7
I3
ssS'VBG'
p8
(dp9
S'PRP$'
p10
I3
sS'VBG'
p11
I7
sS'RB'
p12
I57
sS'NN'
p13
I322
sS'JJR'
p14
I18
sg7
I27
sS'TO'
p15
I35
sS'UH'
p16
I16
sS'JJ'
p17
I68
sS'IN'
p18
I393
sS'RP'
p19
I9
sS'DT'
p20
I44
sS'CD'
p21
I2
sS'HYPH'
p22
I10
ssS'FW'
p23
(dp24
S'VB'
p25
I2
sS'NN'
p26
I106
sS'FW'
p27
I370
sS'POS'
p28
I62
sg7
I123
sS'VBP'
p29
I12
sS'VBN'
p30
I13
sS'HYPH'
p31
I29
sS'JJ'
p32
I11
ssS'VBN'
p33
(dp34
S'VB'
p35
I1
sS'NN'
p36
I124
sS'CC'
p37
I5
sS'HYPH'
p38
I4
sg7
I109
sS'TO'
p39
I2
sS'UH'
p40
I14
sS'RB'
p41
I12
sS'IN'
p42
I58
sS'DT'
p43
I50
sS'CD'
p44
I5
sS'NNS'
p45
I8
sS'PRP'
p46
I7
ssS'VBP'
p47
(dp48
S'PRP$'
p49
I13
sg8
I326
sg33
I67
sS'JJ'
p50
I681
sS'WP'
p51
I2
sS'VBZ'
p52
I21
sS'DT'
p53
I653
sS'RP'
p54
I15
sS'NN'
p55
I276
sS'POS'
p56
I11
sg7
I67
sS'TO'
p57
I1525
sS'PRP'
p58
I864
sS'RB'
p59
I759
sS'NNS'
p60
I103
sS'VB'
p61
I8
sS'PDT'
p62
I2
sS'CD'
p63
I32
sS'EX'
p64
I233
sS'IN'
p65
I123
sS'MD'
p66
I19
sS'JJR'
p67
I41
sS'UH'
p68
I48
ssS'WDT'
p69
(dp70
S'WRB'
p71
I2
sS'NN'
p72
I92
sS'VBD'
p73
I13
sS'CD'
p74
I13
sS'VBP'
p75
I105
sS'PRP'
p76
I42
sS'IN'
p77
I34
sS'VBZ'
p78
I237
sS'DT'
p79
I7
sg7
I1
sS'NNS'
p80
I45
sS'UH'
p81
I3
ssS'HYPH'
p82
(dp83
S'VBG'
p84
I69
sS'NN'
p85
I568
sS'FW'
p86
I82
sS'JJ'
p87
I2
sS'RP'
p88
I9
sS'NNS'
p89
I20
sS'NNP'
p90
I43
ssS'JJ'
p91
(dp92
S'VBG'
p93
I12
sS'FW'
p94
I8
sS'VBN'
p95
I15
sS'VBP'
p96
I3
sS'JJ'
p97
I434
sS'VBZ'
p98
I68
sS'DT'
p99
I22
sS'NN'
p100
I4407
sS'POS'
p101
I23
sg7
I748
sS'TO'
p102
I311
sS'HYPH'
p103
I42
sS'RB'
p104
I135
sS'NNS'
p105
I610
sS'PRP'
p106
I120
sS'CC'
p107
I264
sS'CD'
p108
I30
sS'EX'
p109
I3
sS'IN'
p110
I570
sS'MD'
p111
I9
sS'JJS'
p112
I9
sS'JJR'
p113
I20
sS'UH'
p114
I48
sS'NNP'
p115
I24
ssS'WP'
p116
(dp117
S'MD'
p118
I17
sS'RB'
p119
I1
sS'NN'
p120
I69
sS'VBP'
p121
I152
sS'PRP'
p122
I39
sS'JJ'
p123
I12
sS'IN'
p124
I224
sS'VBZ'
p125
I198
sS'DT'
p126
I1
sS'NNS'
p127
I41
ssS'VBZ'
p128
(dp129
S'PRP$'
p130
I5
sS'VBG'
p131
I48
sS'FW'
p132
I20
sS'VBN'
p133
I79
sS'JJ'
p134
I327
sS'WP'
p135
I13
sS'VBZ'
p136
I8
sS'DT'
p137
I538
sS'NN'
p138
I175
sg7
I74
sS'TO'
p139
I26
sS'PRP'
p140
I67
sS'RB'
p141
I449
sS'NNS'
p142
I50
sS'NNP'
p143
I70
sS'VB'
p144
I37
sS'RBR'
p145
I3
sS'CD'
p146
I49
sS'EX'
p147
I136
sS'IN'
p148
I119
sS'JJS'
p149
I11
sS'JJR'
p150
I39
sS'UH'
p151
I83
ssS'DT'
p152
(dp153
S'VBG'
p154
I43
sS'FW'
p155
I7
sS'VBN'
p156
I17
sS'VBP'
p157
I19
sS'WDT'
p158
I3
sg91
I1993
sS'VBZ'
p159
I105
sS'DT'
p160
I37
sS'RP'
p161
I2
sS'NN'
p162
I4867
sS'VBD'
p163
I5
sS'POS'
p164
I9
sg7
I80
sg82
I58
sS'RB'
p165
I77
sS'NNS'
p166
I284
sS'NNP'
p167
I22
sS'VB'
p168
I9
sS'RBS'
p169
I18
sS'RBR'
p170
I24
sS'CD'
p171
I126
sS'PRP'
p172
I28
sS'IN'
p173
I45
sS'MD'
p174
I59
sS'JJS'
p175
I187
sS'JJR'
p176
I306
sS'UH'
p177
I109
ssS'RP'
p178
(dp179
S'VB'
p180
I8
sS'NN'
p181
I30
sS'CC'
p182
I15
sS'JJR'
p183
I5
sg7
I618
sS'TO'
p184
I17
sS'UH'
p185
I37
sS'RB'
p186
I19
sS'IN'
p187
I214
sS'DT'
p188
I16
sS'CD'
p189
I3
ssg100
(dp190
S'VBG'
p191
I41
sS'VBD'
p192
I10
sS'VBN'
p193
I51
sS'VBP'
p194
I207
sS'WDT'
p195
I294
sS'JJ'
p196
I360
sS'WP'
p197
I18
sS'VBZ'
p198
I524
sS'DT'
p199
I202
sS'RP'
p200
I15
sS'NN'
p201
I4295
sS'FW'
p202
I56
sS'POS'
p203
I578
sg7
I8479
sS'TO'
p204
I255
sS'PRP'
p205
I371
sS'RB'
p206
I851
sS':'
p207
I5
sS'NNS'
p208
I426
sS'HYPH'
p209
I524
sS'VB'
p210
I117
sS'WRB'
p211
I59
sS'CC'
p212
I1162
sS'RBR'
p213
I27
sS'CD'
p214
I54
sS'EX'
p215
I10
sS'IN'
p216
I4150
sS'MD'
p217
I396
sS'JJR'
p218
I98
sS'UH'
p219
I545
sS'NNP'
p220
I13
ssS'VBD'
p221
(dp222
S'WRB'
p223
I2
sS'MD'
p224
I7
sS'PRP$'
p225
I5
sS'VBG'
p226
I17
sS'JJ'
p227
I17
sS'NN'
p228
I55
sS'RBS'
p229
I16
sS'JJR'
p230
I21
sS'CD'
p231
I12
sS'VB'
p232
I14
sS'TO'
p233
I35
sS'PRP'
p234
I70
sS'RB'
p235
I96
sS'IN'
p236
I46
sS'RP'
p237
I19
sS'DT'
p238
I102
sg7
I11
sS'NNS'
p239
I9
sS'VBZ'
p240
I8
sS'UH'
p241
I7
ssS'POS'
p242
(dp243
S'VB'
p244
I22
sS'WRB'
p245
I3
sS'NN'
p246
I584
sS'FW'
p247
I40
sS'CC'
p248
I5
sS'VBG'
p249
I16
sS'VBN'
p250
I5
sg7
I145
sS'UH'
p251
I14
sS'JJ'
p252
I68
sS'IN'
p253
I34
sS'VBZ'
p254
I41
sS'DT'
p255
I9
sS'NNS'
p256
I4
sS'PRP'
p257
I4
ssg7
(dp258
S'PRP$'
p259
I14
sS'VBG'
p260
I21
sS'FW'
p261
I34
sS'VBP'
p262
I697
sg69
I148
sS'JJ'
p263
I301
sS'WP'
p264
I534
sS'VBZ'
p265
I426
sS'DT'
p266
I758
sS'RP'
p267
I14
sS'NN'
p268
I730
sS'VBD'
p269
I48
sg7
I1
sS'TO'
p270
I57
sS'PRP'
p271
I5523
sS'RB'
p272
I625
sS'NNS'
p273
I50
sS'NNP'
p274
I27
sS'VB'
p275
I1857
sS'WRB'
p276
I844
sS'CC'
p277
I24
sS'LS'
p278
I9
sS'PDT'
p279
I4
sS'RBR'
p280
I3
sS'CD'
p281
I210
sS'EX'
p282
I7
sS'IN'
p283
I247
sS'MD'
p284
I579
sS'JJS'
p285
I9
sS'JJR'
p286
I94
sS'UH'
p287
I1816
ssS'TO'
p288
(dp289
S'VB'
p290
I4866
sS'NN'
p291
I4
sS'CD'
p292
I217
sS'TO'
p293
I24
sS'UH'
p294
I27
sS'RB'
p295
I36
sS'IN'
p296
I1
sg7
I1
sS'PRP'
p297
I4
ssg271
(dp298
S'VBG'
p299
I16
sg221
I398
sS'VBN'
p300
I5
sg47
I4172
sS'WDT'
p301
I13
sS'JJ'
p302
I145
sS'WP'
p303
I14
sg128
I317
sS'DT'
p304
I462
sS'RP'
p305
I7
sS'NN'
p306
I166
sg7
I153
sS'TO'
p307
I73
sS'PRP'
p308
I84
sS'RB'
p309
I268
sS'NNS'
p310
I17
sS'HYPH'
p311
I4
sS'VB'
p312
I1915
sS'WRB'
p313
I11
sS'CC'
p314
I9
sS'PDT'
p315
I16
sS'RBR'
p316
I336
sS'IN'
p317
I608
sS'MD'
p318
I3526
sS'JJR'
p319
I132
sS'UH'
p320
I81
ssS'RB'
p321
(dp322
S'VBG'
p323
I25
sS'VBD'
p324
I31
sS'VBN'
p325
I41
sS'VBP'
p326
I125
sS'WDT'
p327
I25
sS'HYPH'
p328
I73
sS'JJ'
p329
I894
sS'WP'
p330
I12
sS'VBZ'
p331
I52
sS'DT'
p332
I215
sS'NN'
p333
I99
sS'FW'
p334
I6
sg7
I823
sS'TO'
p335
I17
sS'PRP'
p336
I417
sS'RB'
p337
I727
sS'NNS'
p338
I7
sS'NNP'
p339
I10
sS'VB'
p340
I979
sS'WRB'
p341
I16
sS'CC'
p342
I33
sS'RBS'
p343
I1
sS'RBR'
p344
I7
sS'CD'
p345
I316
sS'EX'
p346
I6
sS'IN'
p347
I691
sS'MD'
p348
I41
sS'JJR'
p349
I170
sS'UH'
p350
I145
ssg207
(dp351
S'NN'
p352
I5
ssg80
(dp353
S'VBG'
p354
I30
sS'VBD'
p355
I5
sS'VBN'
p356
I13
sS'VBP'
p357
I251
sS'WDT'
p358
I71
sS'JJ'
p359
I75
sS'VBZ'
p360
I67
sS'DT'
p361
I87
sS'NN'
p362
I142
sg242
I72
sg7
I2942
sS'TO'
p363
I9
sS'HYPH'
p364
I11
sS'RB'
p365
I319
sS'NNS'
p366
I36
sS'PRP'
p367
I87
sS'VB'
p368
I13
sS'WRB'
p369
I10
sS'CC'
p370
I260
sS'CD'
p371
I8
sS'EX'
p372
I10
sS'IN'
p373
I1204
sS'MD'
p374
I8
sS'JJR'
p375
I11
sS'UH'
p376
I151
ssS'NNP'
p377
(dp378
S'NN'
p379
I48
sS'VBD'
p380
I6
sS'CC'
p381
I91
sS'FW'
p382
I12
sS'HYPH'
p383
I20
sS'POS'
p384
I213
sg7
I180
sS'UH'
p385
I14
sS'VBN'
p386
I3
sS'PRP'
p387
I8
sS'RB'
p388
I35
sS'IN'
p389
I27
sS'WP'
p390
I4
sS'VBZ'
p391
I30
sS'DT'
p392
I7
sS'NNP'
p393
I43
ssS'VB'
p394
(dp395
S'PRP$'
p396
I13
sS'VBG'
p397
I89
sS'VBD'
p398
I3
sS'VBN'
p399
I81
sS'VBP'
p400
I22
sS'WDT'
p401
I7
sS'HYPH'
p402
I9
sS'JJ'
p403
I804
sg116
I62
sS'VBZ'
p404
I19
sS'DT'
p405
I1701
sg178
I884
sS'NN'
p406
I1157
sS'POS'
p407
I13
sg7
I333
sg288
I2519
sS'PRP'
p408
I2515
sg321
I682
sS'NNS'
p409
I134
sS'NNP'
p410
I28
sS'VB'
p411
I38
sS'WRB'
p412
I84
sS'CC'
p413
I98
sS'PDT'
p414
I20
sS'RBR'
p415
I14
sS'CD'
p416
I335
sS'IN'
p417
I2094
sS'MD'
p418
I13
sS'JJS'
p419
I12
sS'JJR'
p420
I526
sS'UH'
p421
I210
ssg412
(dp422
S'MD'
p423
I167
sS'VB'
p424
I18
sS'WRB'
p425
I3
sS'JJ'
p426
I125
sS'NN'
p427
I5
sg7
I5
sS'TO'
p428
I12
sS'VBP'
p429
I29
sS'PRP'
p430
I100
sS'RB'
p431
I72
sS'IN'
p432
I353
sS'VBZ'
p433
I227
sS'DT'
p434
I7
sS'NNS'
p435
I3
sS'EX'
p436
I16
ssg212
(dp437
S'MD'
p438
I23
sS'VB'
p439
I48
sS'WRB'
p440
I10
sS'RB'
p441
I244
sS'NN'
p442
I219
sS'VBD'
p443
I13
sS'CC'
p444
I10
sS'JJR'
p445
I74
sS'CD'
p446
I225
sS'PRP$'
p447
I42
sS'PRP'
p448
I508
sS'JJ'
p449
I193
sS'IN'
p450
I100
sS'VBG'
p451
I8
sS'DT'
p452
I197
sS'NNP'
p453
I53
sS'NNS'
p454
I112
sS'VBZ'
p455
I8
sS'UH'
p456
I132
ssg278
(dp457
S'HYPH'
p458
I9
ssg315
(dp459
S'DT'
p460
I124
ssg169
(dp461
S'DT'
p462
I7
sS'RB'
p463
I16
sS'JJ'
p464
I18
sS'CD'
p465
I1
ssg170
(dp466
S'JJ'
p467
I61
sS'CC'
p468
I6
sg7
I3
sS'PRP'
p469
I15
sS'RB'
p470
I11
sS'IN'
p471
I335
ssg345
(dp472
S'NN'
p473
I340
sS'CC'
p474
I195
sS'CD'
p475
I288
sS'TO'
p476
I95
sS'VBP'
p477
I12
sS'WDT'
p478
I6
sS'PRP'
p479
I10
sS'IN'
p480
I38
sS'VBZ'
p481
I12
sg7
I52
sS'NNS'
p482
I3087
sS'UH'
p483
I22
ssg64
(dp484
S'JJ'
p485
I24
sS'NN'
p486
I11
sS'VBD'
p487
I21
sS'VBP'
p488
I6
sS'UH'
p489
I7
sS'RB'
p490
I9
sS'VBZ'
p491
I48
sS'DT'
p492
I315
ssg417
(dp493
S'PRP$'
p494
I142
sS'VBG'
p495
I215
sg23
I86
sS'VBN'
p496
I5
sS'VBP'
p497
I6
sS'WDT'
p498
I9
sS'JJ'
p499
I964
sS'WP'
p500
I2
sg152
I2764
sS'NN'
p501
I4425
sS'VBD'
p502
I9
sg7
I68
sS'TO'
p503
I68
sS'PRP'
p504
I495
sS'RB'
p505
I156
sS'NNS'
p506
I758
sg377
I408
sS'VB'
p507
I23
sS'WRB'
p508
I2
sS'PDT'
p509
I82
sS'RBS'
p510
I7
sS'RBR'
p511
I13
sS'CD'
p512
I1981
sS'EX'
p513
I9
sS'IN'
p514
I139
sS'JJS'
p515
I106
sS'JJR'
p516
I71
sS'UH'
p517
I262
ssg318
(dp518
S'MD'
p519
I4
sg394
I3944
sS'WRB'
p520
I4
sS'VBD'
p521
I2
sS'TO'
p522
I9
sS'PRP'
p523
I862
sS'RB'
p524
I125
sS'DT'
p525
I4
sS'UH'
p526
I1
ssg175
(dp527
S'MD'
p528
I8
sS'RB'
p529
I21
sS'NN'
p530
I113
sS'JJS'
p531
I6
sS'CD'
p532
I109
sS'UH'
p533
I10
sS'JJ'
p534
I43
sS'IN'
p535
I13
sg7
I22
sS'NNS'
p536
I16
ssg420
(dp537
S'MD'
p538
I7
sS'RP'
p539
I3
sS'JJ'
p540
I3
sS'NN'
p541
I270
sS'JJS'
p542
I16
sS'POS'
p543
I6
sg7
I71
sS'TO'
p544
I4
sS'VBP'
p545
I8
sS'UH'
p546
I12
sS'RB'
p547
I4
sS'IN'
p548
I1249
sS'NNS'
p549
I14
sS'JJR'
p550
I16
ssg219
(dp551
g1
I35
sS'VBG'
p552
I28
sS'VBD'
p553
I5
sS'VBN'
p554
I4
sS'VBP'
p555
I63
sS'WDT'
p556
I18
sS'JJ'
p557
I278
sS'WP'
p558
I93
sS'VBZ'
p559
I10
sS'DT'
p560
I202
sS'RP'
p561
I5
sS'NN'
p562
I294
sS'FW'
p563
I7
sS'POS'
p564
I7
sg7
I572
sS'TO'
p565
I87
sS'PRP'
p566
I708
sS'RB'
p567
I198
sS'NNS'
p568
I26
sS'VB'
p569
I600
sS'WRB'
p570
I92
sS'CC'
p571
I42
sS'RBR'
p572
I4
sS'CD'
p573
I141
sS'EX'
p574
I11
sS'IN'
p575
I166
sS'MD'
p576
I72
sS'JJS'
p577
I5
sS'JJR'
p578
I41
sS'UH'
p579
I389
ss.